
Dual_motor control_with timer.elf:     file format elf32-littlearm

Sections:
Idx Name          Size      VMA       LMA       File off  Algn
  0 .isr_vector   00000188  08000000  08000000  00001000  2**0
                  CONTENTS, ALLOC, LOAD, READONLY, DATA
  1 .text         000004a4  08000188  08000188  00001188  2**2
                  CONTENTS, ALLOC, LOAD, READONLY, CODE
  2 .rodata       00000000  0800062c  08000634  00001634  2**0
                  CONTENTS, ALLOC, LOAD, DATA
  3 .ARM.extab    00000000  0800062c  0800062c  00001634  2**0
                  CONTENTS, READONLY
  4 .ARM          00000000  0800062c  0800062c  00001634  2**0
                  CONTENTS, READONLY
  5 .preinit_array 00000000  0800062c  08000634  00001634  2**0
                  CONTENTS, ALLOC, LOAD, DATA
  6 .init_array   00000004  0800062c  0800062c  0000162c  2**2
                  CONTENTS, ALLOC, LOAD, READONLY, DATA
  7 .fini_array   00000004  08000630  08000630  00001630  2**2
                  CONTENTS, ALLOC, LOAD, READONLY, DATA
  8 .data         00000000  20000000  20000000  00001634  2**0
                  CONTENTS, ALLOC, LOAD, DATA
  9 .ccmram       00000000  10000000  10000000  00001634  2**0
                  CONTENTS
 10 .bss          00000028  20000000  20000000  00002000  2**2
                  ALLOC
 11 ._user_heap_stack 00000600  20000028  20000028  00002000  2**0
                  ALLOC
 12 .ARM.attributes 00000030  00000000  00000000  00001634  2**0
                  CONTENTS, READONLY
 13 .debug_info   000008c1  00000000  00000000  00001664  2**0
                  CONTENTS, READONLY, DEBUGGING, OCTETS
 14 .debug_abbrev 0000019a  00000000  00000000  00001f25  2**0
                  CONTENTS, READONLY, DEBUGGING, OCTETS
 15 .debug_aranges 00000080  00000000  00000000  000020c0  2**3
                  CONTENTS, READONLY, DEBUGGING, OCTETS
 16 .debug_rnglists 0000005a  00000000  00000000  00002140  2**0
                  CONTENTS, READONLY, DEBUGGING, OCTETS
 17 .debug_macro  00015a45  00000000  00000000  0000219a  2**0
                  CONTENTS, READONLY, DEBUGGING, OCTETS
 18 .debug_line   00000781  00000000  00000000  00017bdf  2**0
                  CONTENTS, READONLY, DEBUGGING, OCTETS
 19 .debug_str    0007911b  00000000  00000000  00018360  2**0
                  CONTENTS, READONLY, DEBUGGING, OCTETS
 20 .comment      00000043  00000000  00000000  0009147b  2**0
                  CONTENTS, READONLY
 21 .debug_frame  00000134  00000000  00000000  000914c0  2**2
                  CONTENTS, READONLY, DEBUGGING, OCTETS
 22 .debug_line_str 00000072  00000000  00000000  000915f4  2**0
                  CONTENTS, READONLY, DEBUGGING, OCTETS

Disassembly of section .text:

08000188 <__do_global_dtors_aux>:
 8000188:	b510      	push	{r4, lr}
 800018a:	4c05      	ldr	r4, [pc, #20]	@ (80001a0 <__do_global_dtors_aux+0x18>)
 800018c:	7823      	ldrb	r3, [r4, #0]
 800018e:	b933      	cbnz	r3, 800019e <__do_global_dtors_aux+0x16>
 8000190:	4b04      	ldr	r3, [pc, #16]	@ (80001a4 <__do_global_dtors_aux+0x1c>)
 8000192:	b113      	cbz	r3, 800019a <__do_global_dtors_aux+0x12>
 8000194:	4804      	ldr	r0, [pc, #16]	@ (80001a8 <__do_global_dtors_aux+0x20>)
 8000196:	f3af 8000 	nop.w
 800019a:	2301      	movs	r3, #1
 800019c:	7023      	strb	r3, [r4, #0]
 800019e:	bd10      	pop	{r4, pc}
 80001a0:	20000000 	.word	0x20000000
 80001a4:	00000000 	.word	0x00000000
 80001a8:	08000614 	.word	0x08000614

080001ac <frame_dummy>:
 80001ac:	b508      	push	{r3, lr}
 80001ae:	4b03      	ldr	r3, [pc, #12]	@ (80001bc <frame_dummy+0x10>)
 80001b0:	b11b      	cbz	r3, 80001ba <frame_dummy+0xe>
 80001b2:	4903      	ldr	r1, [pc, #12]	@ (80001c0 <frame_dummy+0x14>)
 80001b4:	4803      	ldr	r0, [pc, #12]	@ (80001c4 <frame_dummy+0x18>)
 80001b6:	f3af 8000 	nop.w
 80001ba:	bd08      	pop	{r3, pc}
 80001bc:	00000000 	.word	0x00000000
 80001c0:	20000004 	.word	0x20000004
 80001c4:	08000614 	.word	0x08000614

080001c8 <_ZN5motor10EXTI3_initEv>:
volatile uint32_t stop=0;
volatile uint32_t timer=0;
class motor
{
public:
	static void EXTI3_init()
 80001c8:	b480      	push	{r7}
 80001ca:	b083      	sub	sp, #12
 80001cc:	af00      	add	r7, sp, #0
	{
		RCC->APB2ENR |= (1 << 14);  // SYSCFG
 80001ce:	4b22      	ldr	r3, [pc, #136]	@ (8000258 <_ZN5motor10EXTI3_initEv+0x90>)
 80001d0:	6c5b      	ldr	r3, [r3, #68]	@ 0x44
 80001d2:	4a21      	ldr	r2, [pc, #132]	@ (8000258 <_ZN5motor10EXTI3_initEv+0x90>)
 80001d4:	f443 4380 	orr.w	r3, r3, #16384	@ 0x4000
 80001d8:	6453      	str	r3, [r2, #68]	@ 0x44
		RCC->AHB1ENR|=(1<<1);  //gpiob
 80001da:	4b1f      	ldr	r3, [pc, #124]	@ (8000258 <_ZN5motor10EXTI3_initEv+0x90>)
 80001dc:	6b1b      	ldr	r3, [r3, #48]	@ 0x30
 80001de:	4a1e      	ldr	r2, [pc, #120]	@ (8000258 <_ZN5motor10EXTI3_initEv+0x90>)
 80001e0:	f043 0302 	orr.w	r3, r3, #2
 80001e4:	6313      	str	r3, [r2, #48]	@ 0x30

		GPIOB->MODER &= ~(3 << (3 * 2));
 80001e6:	4b1d      	ldr	r3, [pc, #116]	@ (800025c <_ZN5motor10EXTI3_initEv+0x94>)
 80001e8:	681b      	ldr	r3, [r3, #0]
 80001ea:	4a1c      	ldr	r2, [pc, #112]	@ (800025c <_ZN5motor10EXTI3_initEv+0x94>)
 80001ec:	f023 03c0 	bic.w	r3, r3, #192	@ 0xc0
 80001f0:	6013      	str	r3, [r2, #0]
		GPIOB->PUPDR &= ~(3 << (3 * 2));
 80001f2:	4b1a      	ldr	r3, [pc, #104]	@ (800025c <_ZN5motor10EXTI3_initEv+0x94>)
 80001f4:	68db      	ldr	r3, [r3, #12]
 80001f6:	4a19      	ldr	r2, [pc, #100]	@ (800025c <_ZN5motor10EXTI3_initEv+0x94>)
 80001f8:	f023 03c0 	bic.w	r3, r3, #192	@ 0xc0
 80001fc:	60d3      	str	r3, [r2, #12]
		GPIOB->PUPDR |=  (2 << (3 * 2));  // Pull-down
 80001fe:	4b17      	ldr	r3, [pc, #92]	@ (800025c <_ZN5motor10EXTI3_initEv+0x94>)
 8000200:	68db      	ldr	r3, [r3, #12]
 8000202:	4a16      	ldr	r2, [pc, #88]	@ (800025c <_ZN5motor10EXTI3_initEv+0x94>)
 8000204:	f043 0380 	orr.w	r3, r3, #128	@ 0x80
 8000208:	60d3      	str	r3, [r2, #12]

		SYSCFG->EXTICR[0]&=~(0xf<<12);
 800020a:	4b15      	ldr	r3, [pc, #84]	@ (8000260 <_ZN5motor10EXTI3_initEv+0x98>)
 800020c:	689b      	ldr	r3, [r3, #8]
 800020e:	4a14      	ldr	r2, [pc, #80]	@ (8000260 <_ZN5motor10EXTI3_initEv+0x98>)
 8000210:	f423 4370 	bic.w	r3, r3, #61440	@ 0xf000
 8000214:	6093      	str	r3, [r2, #8]
		SYSCFG->EXTICR[0]|=(1<<12);    //PB3
 8000216:	4b12      	ldr	r3, [pc, #72]	@ (8000260 <_ZN5motor10EXTI3_initEv+0x98>)
 8000218:	689b      	ldr	r3, [r3, #8]
 800021a:	4a11      	ldr	r2, [pc, #68]	@ (8000260 <_ZN5motor10EXTI3_initEv+0x98>)
 800021c:	f443 5380 	orr.w	r3, r3, #4096	@ 0x1000
 8000220:	6093      	str	r3, [r2, #8]

		EXTI->IMR|=(1<<3);
 8000222:	4b10      	ldr	r3, [pc, #64]	@ (8000264 <_ZN5motor10EXTI3_initEv+0x9c>)
 8000224:	681b      	ldr	r3, [r3, #0]
 8000226:	4a0f      	ldr	r2, [pc, #60]	@ (8000264 <_ZN5motor10EXTI3_initEv+0x9c>)
 8000228:	f043 0308 	orr.w	r3, r3, #8
 800022c:	6013      	str	r3, [r2, #0]
		EXTI->RTSR|=(1<<3);
 800022e:	4b0d      	ldr	r3, [pc, #52]	@ (8000264 <_ZN5motor10EXTI3_initEv+0x9c>)
 8000230:	689b      	ldr	r3, [r3, #8]
 8000232:	4a0c      	ldr	r2, [pc, #48]	@ (8000264 <_ZN5motor10EXTI3_initEv+0x9c>)
 8000234:	f043 0308 	orr.w	r3, r3, #8
 8000238:	6093      	str	r3, [r2, #8]

		volatile uint32_t*piser=((volatile uint32_t*)(0xE000E100)); // NVIC_ISER
 800023a:	4b0b      	ldr	r3, [pc, #44]	@ (8000268 <_ZN5motor10EXTI3_initEv+0xa0>)
 800023c:	607b      	str	r3, [r7, #4]
        *piser|=(1<<9);  // NVIC_ISER|=(1<<9);
 800023e:	687b      	ldr	r3, [r7, #4]
 8000240:	681b      	ldr	r3, [r3, #0]
 8000242:	f443 7200 	orr.w	r2, r3, #512	@ 0x200
 8000246:	687b      	ldr	r3, [r7, #4]
 8000248:	601a      	str	r2, [r3, #0]
	}
 800024a:	bf00      	nop
 800024c:	370c      	adds	r7, #12
 800024e:	46bd      	mov	sp, r7
 8000250:	f85d 7b04 	ldr.w	r7, [sp], #4
 8000254:	4770      	bx	lr
 8000256:	bf00      	nop
 8000258:	40023800 	.word	0x40023800
 800025c:	40020400 	.word	0x40020400
 8000260:	40013800 	.word	0x40013800
 8000264:	40013c00 	.word	0x40013c00
 8000268:	e000e100 	.word	0xe000e100

0800026c <_ZN5motor10EXTI4_initEv>:
	static void EXTI4_init()
 800026c:	b480      	push	{r7}
 800026e:	b083      	sub	sp, #12
 8000270:	af00      	add	r7, sp, #0
	{
		RCC->APB2ENR |= (1 << 14);  // SYSCFG
 8000272:	4b22      	ldr	r3, [pc, #136]	@ (80002fc <_ZN5motor10EXTI4_initEv+0x90>)
 8000274:	6c5b      	ldr	r3, [r3, #68]	@ 0x44
 8000276:	4a21      	ldr	r2, [pc, #132]	@ (80002fc <_ZN5motor10EXTI4_initEv+0x90>)
 8000278:	f443 4380 	orr.w	r3, r3, #16384	@ 0x4000
 800027c:	6453      	str	r3, [r2, #68]	@ 0x44
		RCC->AHB1ENR|=(1<<2);  //gpioc
 800027e:	4b1f      	ldr	r3, [pc, #124]	@ (80002fc <_ZN5motor10EXTI4_initEv+0x90>)
 8000280:	6b1b      	ldr	r3, [r3, #48]	@ 0x30
 8000282:	4a1e      	ldr	r2, [pc, #120]	@ (80002fc <_ZN5motor10EXTI4_initEv+0x90>)
 8000284:	f043 0304 	orr.w	r3, r3, #4
 8000288:	6313      	str	r3, [r2, #48]	@ 0x30

		 GPIOC->MODER &= ~(3 << (4 * 2));   // PC4 input
 800028a:	4b1d      	ldr	r3, [pc, #116]	@ (8000300 <_ZN5motor10EXTI4_initEv+0x94>)
 800028c:	681b      	ldr	r3, [r3, #0]
 800028e:	4a1c      	ldr	r2, [pc, #112]	@ (8000300 <_ZN5motor10EXTI4_initEv+0x94>)
 8000290:	f423 7340 	bic.w	r3, r3, #768	@ 0x300
 8000294:	6013      	str	r3, [r2, #0]
		 GPIOC->PUPDR &= ~(3 << (4 * 2));
 8000296:	4b1a      	ldr	r3, [pc, #104]	@ (8000300 <_ZN5motor10EXTI4_initEv+0x94>)
 8000298:	68db      	ldr	r3, [r3, #12]
 800029a:	4a19      	ldr	r2, [pc, #100]	@ (8000300 <_ZN5motor10EXTI4_initEv+0x94>)
 800029c:	f423 7340 	bic.w	r3, r3, #768	@ 0x300
 80002a0:	60d3      	str	r3, [r2, #12]
		 GPIOC->PUPDR |=  (2 << (4 * 2));    // Pull-down
 80002a2:	4b17      	ldr	r3, [pc, #92]	@ (8000300 <_ZN5motor10EXTI4_initEv+0x94>)
 80002a4:	68db      	ldr	r3, [r3, #12]
 80002a6:	4a16      	ldr	r2, [pc, #88]	@ (8000300 <_ZN5motor10EXTI4_initEv+0x94>)
 80002a8:	f443 7300 	orr.w	r3, r3, #512	@ 0x200
 80002ac:	60d3      	str	r3, [r2, #12]

		SYSCFG->EXTICR[1]&=~(0xf<<0);
 80002ae:	4b15      	ldr	r3, [pc, #84]	@ (8000304 <_ZN5motor10EXTI4_initEv+0x98>)
 80002b0:	68db      	ldr	r3, [r3, #12]
 80002b2:	4a14      	ldr	r2, [pc, #80]	@ (8000304 <_ZN5motor10EXTI4_initEv+0x98>)
 80002b4:	f023 030f 	bic.w	r3, r3, #15
 80002b8:	60d3      	str	r3, [r2, #12]
		SYSCFG->EXTICR[1]|=(0x2<<0);    //PC4
 80002ba:	4b12      	ldr	r3, [pc, #72]	@ (8000304 <_ZN5motor10EXTI4_initEv+0x98>)
 80002bc:	68db      	ldr	r3, [r3, #12]
 80002be:	4a11      	ldr	r2, [pc, #68]	@ (8000304 <_ZN5motor10EXTI4_initEv+0x98>)
 80002c0:	f043 0302 	orr.w	r3, r3, #2
 80002c4:	60d3      	str	r3, [r2, #12]

		EXTI->IMR|=(1<<4);   //  enable interrupt
 80002c6:	4b10      	ldr	r3, [pc, #64]	@ (8000308 <_ZN5motor10EXTI4_initEv+0x9c>)
 80002c8:	681b      	ldr	r3, [r3, #0]
 80002ca:	4a0f      	ldr	r2, [pc, #60]	@ (8000308 <_ZN5motor10EXTI4_initEv+0x9c>)
 80002cc:	f043 0310 	orr.w	r3, r3, #16
 80002d0:	6013      	str	r3, [r2, #0]
		EXTI->RTSR|=(1<<4);  // raising edge  trigger input
 80002d2:	4b0d      	ldr	r3, [pc, #52]	@ (8000308 <_ZN5motor10EXTI4_initEv+0x9c>)
 80002d4:	689b      	ldr	r3, [r3, #8]
 80002d6:	4a0c      	ldr	r2, [pc, #48]	@ (8000308 <_ZN5motor10EXTI4_initEv+0x9c>)
 80002d8:	f043 0310 	orr.w	r3, r3, #16
 80002dc:	6093      	str	r3, [r2, #8]

		volatile uint32_t*piser=((volatile uint32_t*)(0xE000E100)); // NVIC_ISER
 80002de:	4b0b      	ldr	r3, [pc, #44]	@ (800030c <_ZN5motor10EXTI4_initEv+0xa0>)
 80002e0:	607b      	str	r3, [r7, #4]
		        *piser|=(1<<10);  // NVIC_ISER|=(1<<10);
 80002e2:	687b      	ldr	r3, [r7, #4]
 80002e4:	681b      	ldr	r3, [r3, #0]
 80002e6:	f443 6280 	orr.w	r2, r3, #1024	@ 0x400
 80002ea:	687b      	ldr	r3, [r7, #4]
 80002ec:	601a      	str	r2, [r3, #0]
	}
 80002ee:	bf00      	nop
 80002f0:	370c      	adds	r7, #12
 80002f2:	46bd      	mov	sp, r7
 80002f4:	f85d 7b04 	ldr.w	r7, [sp], #4
 80002f8:	4770      	bx	lr
 80002fa:	bf00      	nop
 80002fc:	40023800 	.word	0x40023800
 8000300:	40020800 	.word	0x40020800
 8000304:	40013800 	.word	0x40013800
 8000308:	40013c00 	.word	0x40013c00
 800030c:	e000e100 	.word	0xe000e100

08000310 <_ZN5motor9TIM2_initEv>:
	static void TIM2_init()
 8000310:	b480      	push	{r7}
 8000312:	b083      	sub	sp, #12
 8000314:	af00      	add	r7, sp, #0
	{
		RCC->AHB1ENR |= (1 << 3);
 8000316:	4b1c      	ldr	r3, [pc, #112]	@ (8000388 <_ZN5motor9TIM2_initEv+0x78>)
 8000318:	6b1b      	ldr	r3, [r3, #48]	@ 0x30
 800031a:	4a1b      	ldr	r2, [pc, #108]	@ (8000388 <_ZN5motor9TIM2_initEv+0x78>)
 800031c:	f043 0308 	orr.w	r3, r3, #8
 8000320:	6313      	str	r3, [r2, #48]	@ 0x30
		        // Enable TIM2 clock
		 RCC->APB1ENR |= (1 << 0);
 8000322:	4b19      	ldr	r3, [pc, #100]	@ (8000388 <_ZN5motor9TIM2_initEv+0x78>)
 8000324:	6c1b      	ldr	r3, [r3, #64]	@ 0x40
 8000326:	4a18      	ldr	r2, [pc, #96]	@ (8000388 <_ZN5motor9TIM2_initEv+0x78>)
 8000328:	f043 0301 	orr.w	r3, r3, #1
 800032c:	6413      	str	r3, [r2, #64]	@ 0x40

		        // Configure timer for 1 sec
		 TIM2->PSC = 1600 - 1;   // 16MHz → 1kHz
 800032e:	f04f 4380 	mov.w	r3, #1073741824	@ 0x40000000
 8000332:	f240 623f 	movw	r2, #1599	@ 0x63f
 8000336:	629a      	str	r2, [r3, #40]	@ 0x28
		 TIM2->ARR = 10000 - 1;    // 1kHz → 1 sec
 8000338:	f04f 4380 	mov.w	r3, #1073741824	@ 0x40000000
 800033c:	f242 720f 	movw	r2, #9999	@ 0x270f
 8000340:	62da      	str	r2, [r3, #44]	@ 0x2c

		 TIM2->CNT = 0;
 8000342:	f04f 4380 	mov.w	r3, #1073741824	@ 0x40000000
 8000346:	2200      	movs	r2, #0
 8000348:	625a      	str	r2, [r3, #36]	@ 0x24

		        // Enable update interrupt
		 TIM2->DIER |= (1 << 0);
 800034a:	f04f 4380 	mov.w	r3, #1073741824	@ 0x40000000
 800034e:	68db      	ldr	r3, [r3, #12]
 8000350:	f04f 4280 	mov.w	r2, #1073741824	@ 0x40000000
 8000354:	f043 0301 	orr.w	r3, r3, #1
 8000358:	60d3      	str	r3, [r2, #12]

		        // Start timer
		 TIM2->CR1 |= (1 << 0);
 800035a:	f04f 4380 	mov.w	r3, #1073741824	@ 0x40000000
 800035e:	681b      	ldr	r3, [r3, #0]
 8000360:	f04f 4280 	mov.w	r2, #1073741824	@ 0x40000000
 8000364:	f043 0301 	orr.w	r3, r3, #1
 8000368:	6013      	str	r3, [r2, #0]

		        // Enable NVIC interrupt (TIM2 IRQ = 28)
		  volatile uint32_t*piser=((volatile uint32_t*)(0xE000E100)); // NVIC_ISER
 800036a:	4b08      	ldr	r3, [pc, #32]	@ (800038c <_ZN5motor9TIM2_initEv+0x7c>)
 800036c:	607b      	str	r3, [r7, #4]
		                *piser|=(1<<28);
 800036e:	687b      	ldr	r3, [r7, #4]
 8000370:	681b      	ldr	r3, [r3, #0]
 8000372:	f043 5280 	orr.w	r2, r3, #268435456	@ 0x10000000
 8000376:	687b      	ldr	r3, [r7, #4]
 8000378:	601a      	str	r2, [r3, #0]
	 }
 800037a:	bf00      	nop
 800037c:	370c      	adds	r7, #12
 800037e:	46bd      	mov	sp, r7
 8000380:	f85d 7b04 	ldr.w	r7, [sp], #4
 8000384:	4770      	bx	lr
 8000386:	bf00      	nop
 8000388:	40023800 	.word	0x40023800
 800038c:	e000e100 	.word	0xe000e100

08000390 <_ZN5motor9GPIO_initEv>:
	static void GPIO_init()
 8000390:	b480      	push	{r7}
 8000392:	af00      	add	r7, sp, #0
	{
		RCC->AHB1ENR|=(1<<3);  // gpiod
 8000394:	4b17      	ldr	r3, [pc, #92]	@ (80003f4 <_ZN5motor9GPIO_initEv+0x64>)
 8000396:	6b1b      	ldr	r3, [r3, #48]	@ 0x30
 8000398:	4a16      	ldr	r2, [pc, #88]	@ (80003f4 <_ZN5motor9GPIO_initEv+0x64>)
 800039a:	f043 0308 	orr.w	r3, r3, #8
 800039e:	6313      	str	r3, [r2, #48]	@ 0x30
		GPIOD->MODER&=~(3<<24);
 80003a0:	4b15      	ldr	r3, [pc, #84]	@ (80003f8 <_ZN5motor9GPIO_initEv+0x68>)
 80003a2:	681b      	ldr	r3, [r3, #0]
 80003a4:	4a14      	ldr	r2, [pc, #80]	@ (80003f8 <_ZN5motor9GPIO_initEv+0x68>)
 80003a6:	f023 7340 	bic.w	r3, r3, #50331648	@ 0x3000000
 80003aa:	6013      	str	r3, [r2, #0]
		GPIOD->MODER|=(1<<24);
 80003ac:	4b12      	ldr	r3, [pc, #72]	@ (80003f8 <_ZN5motor9GPIO_initEv+0x68>)
 80003ae:	681b      	ldr	r3, [r3, #0]
 80003b0:	4a11      	ldr	r2, [pc, #68]	@ (80003f8 <_ZN5motor9GPIO_initEv+0x68>)
 80003b2:	f043 7380 	orr.w	r3, r3, #16777216	@ 0x1000000
 80003b6:	6013      	str	r3, [r2, #0]
		GPIOD->MODER&=~(3<<28);
 80003b8:	4b0f      	ldr	r3, [pc, #60]	@ (80003f8 <_ZN5motor9GPIO_initEv+0x68>)
 80003ba:	681b      	ldr	r3, [r3, #0]
 80003bc:	4a0e      	ldr	r2, [pc, #56]	@ (80003f8 <_ZN5motor9GPIO_initEv+0x68>)
 80003be:	f023 5340 	bic.w	r3, r3, #805306368	@ 0x30000000
 80003c2:	6013      	str	r3, [r2, #0]
		GPIOD->MODER|=(1<<28);
 80003c4:	4b0c      	ldr	r3, [pc, #48]	@ (80003f8 <_ZN5motor9GPIO_initEv+0x68>)
 80003c6:	681b      	ldr	r3, [r3, #0]
 80003c8:	4a0b      	ldr	r2, [pc, #44]	@ (80003f8 <_ZN5motor9GPIO_initEv+0x68>)
 80003ca:	f043 5380 	orr.w	r3, r3, #268435456	@ 0x10000000
 80003ce:	6013      	str	r3, [r2, #0]
		GPIOD->MODER&=~(3<<30);
 80003d0:	4b09      	ldr	r3, [pc, #36]	@ (80003f8 <_ZN5motor9GPIO_initEv+0x68>)
 80003d2:	681b      	ldr	r3, [r3, #0]
 80003d4:	4a08      	ldr	r2, [pc, #32]	@ (80003f8 <_ZN5motor9GPIO_initEv+0x68>)
 80003d6:	f023 4340 	bic.w	r3, r3, #3221225472	@ 0xc0000000
 80003da:	6013      	str	r3, [r2, #0]
		GPIOD->MODER|=(1<<30);
 80003dc:	4b06      	ldr	r3, [pc, #24]	@ (80003f8 <_ZN5motor9GPIO_initEv+0x68>)
 80003de:	681b      	ldr	r3, [r3, #0]
 80003e0:	4a05      	ldr	r2, [pc, #20]	@ (80003f8 <_ZN5motor9GPIO_initEv+0x68>)
 80003e2:	f043 4380 	orr.w	r3, r3, #1073741824	@ 0x40000000
 80003e6:	6013      	str	r3, [r2, #0]

	}
 80003e8:	bf00      	nop
 80003ea:	46bd      	mov	sp, r7
 80003ec:	f85d 7b04 	ldr.w	r7, [sp], #4
 80003f0:	4770      	bx	lr
 80003f2:	bf00      	nop
 80003f4:	40023800 	.word	0x40023800
 80003f8:	40020c00 	.word	0x40020c00

080003fc <EXTI3_IRQHandler>:

};

extern "C" void EXTI3_IRQHandler(void)
{
 80003fc:	b480      	push	{r7}
 80003fe:	af00      	add	r7, sp, #0
    if (EXTI->PR & (1 << 3))  // / test triggered occur or not 1-> occur 0-> not occure
 8000400:	4b0c      	ldr	r3, [pc, #48]	@ (8000434 <EXTI3_IRQHandler+0x38>)
 8000402:	695b      	ldr	r3, [r3, #20]
 8000404:	f003 0308 	and.w	r3, r3, #8
 8000408:	2b00      	cmp	r3, #0
 800040a:	bf14      	ite	ne
 800040c:	2301      	movne	r3, #1
 800040e:	2300      	moveq	r3, #0
 8000410:	b2db      	uxtb	r3, r3
 8000412:	2b00      	cmp	r3, #0
 8000414:	d008      	beq.n	8000428 <EXTI3_IRQHandler+0x2c>
    {
        start=1;
 8000416:	4b08      	ldr	r3, [pc, #32]	@ (8000438 <EXTI3_IRQHandler+0x3c>)
 8000418:	2201      	movs	r2, #1
 800041a:	601a      	str	r2, [r3, #0]

        EXTI->PR |= (1 << 3); // Clear pending
 800041c:	4b05      	ldr	r3, [pc, #20]	@ (8000434 <EXTI3_IRQHandler+0x38>)
 800041e:	695b      	ldr	r3, [r3, #20]
 8000420:	4a04      	ldr	r2, [pc, #16]	@ (8000434 <EXTI3_IRQHandler+0x38>)
 8000422:	f043 0308 	orr.w	r3, r3, #8
 8000426:	6153      	str	r3, [r2, #20]
    }
}
 8000428:	bf00      	nop
 800042a:	46bd      	mov	sp, r7
 800042c:	f85d 7b04 	ldr.w	r7, [sp], #4
 8000430:	4770      	bx	lr
 8000432:	bf00      	nop
 8000434:	40013c00 	.word	0x40013c00
 8000438:	2000001c 	.word	0x2000001c

0800043c <EXTI4_IRQHandler>:
extern "C" void EXTI4_IRQHandler(void)
{
 800043c:	b480      	push	{r7}
 800043e:	af00      	add	r7, sp, #0
    if (EXTI->PR & (1 << 4))  // / test triggered occur or not 1-> occur 0-> not occure
 8000440:	4b10      	ldr	r3, [pc, #64]	@ (8000484 <EXTI4_IRQHandler+0x48>)
 8000442:	695b      	ldr	r3, [r3, #20]
 8000444:	f003 0310 	and.w	r3, r3, #16
 8000448:	2b00      	cmp	r3, #0
 800044a:	bf14      	ite	ne
 800044c:	2301      	movne	r3, #1
 800044e:	2300      	moveq	r3, #0
 8000450:	b2db      	uxtb	r3, r3
 8000452:	2b00      	cmp	r3, #0
 8000454:	d010      	beq.n	8000478 <EXTI4_IRQHandler+0x3c>
    {
      stop=1;
 8000456:	4b0c      	ldr	r3, [pc, #48]	@ (8000488 <EXTI4_IRQHandler+0x4c>)
 8000458:	2201      	movs	r2, #1
 800045a:	601a      	str	r2, [r3, #0]
      TIM2->CR1 &= ~(1 << 0); // Stop timer
 800045c:	f04f 4380 	mov.w	r3, #1073741824	@ 0x40000000
 8000460:	681b      	ldr	r3, [r3, #0]
 8000462:	f04f 4280 	mov.w	r2, #1073741824	@ 0x40000000
 8000466:	f023 0301 	bic.w	r3, r3, #1
 800046a:	6013      	str	r3, [r2, #0]
      EXTI->PR |= (1 << 4); // Clear pending
 800046c:	4b05      	ldr	r3, [pc, #20]	@ (8000484 <EXTI4_IRQHandler+0x48>)
 800046e:	695b      	ldr	r3, [r3, #20]
 8000470:	4a04      	ldr	r2, [pc, #16]	@ (8000484 <EXTI4_IRQHandler+0x48>)
 8000472:	f043 0310 	orr.w	r3, r3, #16
 8000476:	6153      	str	r3, [r2, #20]
    }
}
 8000478:	bf00      	nop
 800047a:	46bd      	mov	sp, r7
 800047c:	f85d 7b04 	ldr.w	r7, [sp], #4
 8000480:	4770      	bx	lr
 8000482:	bf00      	nop
 8000484:	40013c00 	.word	0x40013c00
 8000488:	20000020 	.word	0x20000020

0800048c <TIM2_IRQHandler>:
extern "C" void TIM2_IRQHandler(void)
{
 800048c:	b480      	push	{r7}
 800048e:	af00      	add	r7, sp, #0
    if (TIM2->SR & (1 << 0))   // Check overflow (UIF)
 8000490:	f04f 4380 	mov.w	r3, #1073741824	@ 0x40000000
 8000494:	691b      	ldr	r3, [r3, #16]
 8000496:	f003 0301 	and.w	r3, r3, #1
 800049a:	2b00      	cmp	r3, #0
 800049c:	bf14      	ite	ne
 800049e:	2301      	movne	r3, #1
 80004a0:	2300      	moveq	r3, #0
 80004a2:	b2db      	uxtb	r3, r3
 80004a4:	2b00      	cmp	r3, #0
 80004a6:	d01c      	beq.n	80004e2 <TIM2_IRQHandler+0x56>
    {
           timer=1;// Notify main loop
 80004a8:	4b10      	ldr	r3, [pc, #64]	@ (80004ec <TIM2_IRQHandler+0x60>)
 80004aa:	2201      	movs	r2, #1
 80004ac:	601a      	str	r2, [r3, #0]
           GPIOD->ODR|=(1<<15);
 80004ae:	4b10      	ldr	r3, [pc, #64]	@ (80004f0 <TIM2_IRQHandler+0x64>)
 80004b0:	695b      	ldr	r3, [r3, #20]
 80004b2:	4a0f      	ldr	r2, [pc, #60]	@ (80004f0 <TIM2_IRQHandler+0x64>)
 80004b4:	f443 4300 	orr.w	r3, r3, #32768	@ 0x8000
 80004b8:	6153      	str	r3, [r2, #20]
           TIM2->CNT = 0;
 80004ba:	f04f 4380 	mov.w	r3, #1073741824	@ 0x40000000
 80004be:	2200      	movs	r2, #0
 80004c0:	625a      	str	r2, [r3, #36]	@ 0x24
           TIM2->CR1 |= (1 << 0);
 80004c2:	f04f 4380 	mov.w	r3, #1073741824	@ 0x40000000
 80004c6:	681b      	ldr	r3, [r3, #0]
 80004c8:	f04f 4280 	mov.w	r2, #1073741824	@ 0x40000000
 80004cc:	f043 0301 	orr.w	r3, r3, #1
 80004d0:	6013      	str	r3, [r2, #0]

        TIM2->SR &= ~(1 << 0); // Clear flag
 80004d2:	f04f 4380 	mov.w	r3, #1073741824	@ 0x40000000
 80004d6:	691b      	ldr	r3, [r3, #16]
 80004d8:	f04f 4280 	mov.w	r2, #1073741824	@ 0x40000000
 80004dc:	f023 0301 	bic.w	r3, r3, #1
 80004e0:	6113      	str	r3, [r2, #16]
    }
}
 80004e2:	bf00      	nop
 80004e4:	46bd      	mov	sp, r7
 80004e6:	f85d 7b04 	ldr.w	r7, [sp], #4
 80004ea:	4770      	bx	lr
 80004ec:	20000024 	.word	0x20000024
 80004f0:	40020c00 	.word	0x40020c00

080004f4 <main>:
int main()
{
 80004f4:	b580      	push	{r7, lr}
 80004f6:	af00      	add	r7, sp, #0
	motor::EXTI3_init();
 80004f8:	f7ff fe66 	bl	80001c8 <_ZN5motor10EXTI3_initEv>
	motor::EXTI4_init();
 80004fc:	f7ff feb6 	bl	800026c <_ZN5motor10EXTI4_initEv>
	motor::TIM2_init();
 8000500:	f7ff ff06 	bl	8000310 <_ZN5motor9TIM2_initEv>
	motor::GPIO_init();
 8000504:	f7ff ff44 	bl	8000390 <_ZN5motor9GPIO_initEv>
	while(1)
	{
		if(start)
 8000508:	4b18      	ldr	r3, [pc, #96]	@ (800056c <main+0x78>)
 800050a:	681b      	ldr	r3, [r3, #0]
 800050c:	2b00      	cmp	r3, #0
 800050e:	bf14      	ite	ne
 8000510:	2301      	movne	r3, #1
 8000512:	2300      	moveq	r3, #0
 8000514:	b2db      	uxtb	r3, r3
 8000516:	2b00      	cmp	r3, #0
 8000518:	d00e      	beq.n	8000538 <main+0x44>
		{
			GPIOD->ODR|=(1<<12);
 800051a:	4b15      	ldr	r3, [pc, #84]	@ (8000570 <main+0x7c>)
 800051c:	695b      	ldr	r3, [r3, #20]
 800051e:	4a14      	ldr	r2, [pc, #80]	@ (8000570 <main+0x7c>)
 8000520:	f443 5380 	orr.w	r3, r3, #4096	@ 0x1000
 8000524:	6153      	str	r3, [r2, #20]
			GPIOD->ODR &= ~(1 << 14);  // Turn OFF motor LED
 8000526:	4b12      	ldr	r3, [pc, #72]	@ (8000570 <main+0x7c>)
 8000528:	695b      	ldr	r3, [r3, #20]
 800052a:	4a11      	ldr	r2, [pc, #68]	@ (8000570 <main+0x7c>)
 800052c:	f423 4380 	bic.w	r3, r3, #16384	@ 0x4000
 8000530:	6153      	str	r3, [r2, #20]
			start=0;
 8000532:	4b0e      	ldr	r3, [pc, #56]	@ (800056c <main+0x78>)
 8000534:	2200      	movs	r2, #0
 8000536:	601a      	str	r2, [r3, #0]
		}
		if(stop)
 8000538:	4b0e      	ldr	r3, [pc, #56]	@ (8000574 <main+0x80>)
 800053a:	681b      	ldr	r3, [r3, #0]
 800053c:	2b00      	cmp	r3, #0
 800053e:	bf14      	ite	ne
 8000540:	2301      	movne	r3, #1
 8000542:	2300      	moveq	r3, #0
 8000544:	b2db      	uxtb	r3, r3
 8000546:	2b00      	cmp	r3, #0
 8000548:	d0de      	beq.n	8000508 <main+0x14>
		{
			GPIOD->ODR &= ~(1 << 12);  // Turn OFF motor LED
 800054a:	4b09      	ldr	r3, [pc, #36]	@ (8000570 <main+0x7c>)
 800054c:	695b      	ldr	r3, [r3, #20]
 800054e:	4a08      	ldr	r2, [pc, #32]	@ (8000570 <main+0x7c>)
 8000550:	f423 5380 	bic.w	r3, r3, #4096	@ 0x1000
 8000554:	6153      	str	r3, [r2, #20]
			GPIOD->ODR|=(1<<14);
 8000556:	4b06      	ldr	r3, [pc, #24]	@ (8000570 <main+0x7c>)
 8000558:	695b      	ldr	r3, [r3, #20]
 800055a:	4a05      	ldr	r2, [pc, #20]	@ (8000570 <main+0x7c>)
 800055c:	f443 4380 	orr.w	r3, r3, #16384	@ 0x4000
 8000560:	6153      	str	r3, [r2, #20]
			stop=0;
 8000562:	4b04      	ldr	r3, [pc, #16]	@ (8000574 <main+0x80>)
 8000564:	2200      	movs	r2, #0
 8000566:	601a      	str	r2, [r3, #0]
		if(start)
 8000568:	e7ce      	b.n	8000508 <main+0x14>
 800056a:	bf00      	nop
 800056c:	2000001c 	.word	0x2000001c
 8000570:	40020c00 	.word	0x40020c00
 8000574:	20000020 	.word	0x20000020

08000578 <Reset_Handler>:

  .section .text.Reset_Handler
  .weak Reset_Handler
  .type Reset_Handler, %function
Reset_Handler:
  ldr   r0, =_estack
 8000578:	480d      	ldr	r0, [pc, #52]	@ (80005b0 <LoopForever+0x2>)
  mov   sp, r0          /* set stack pointer */
 800057a:	4685      	mov	sp, r0
/* Call the clock system initialization function.*/
  bl  SystemInit
 800057c:	f3af 8000 	nop.w

/* Copy the data segment initializers from flash to SRAM */
  ldr r0, =_sdata
 8000580:	480c      	ldr	r0, [pc, #48]	@ (80005b4 <LoopForever+0x6>)
  ldr r1, =_edata
 8000582:	490d      	ldr	r1, [pc, #52]	@ (80005b8 <LoopForever+0xa>)
  ldr r2, =_sidata
 8000584:	4a0d      	ldr	r2, [pc, #52]	@ (80005bc <LoopForever+0xe>)
  movs r3, #0
 8000586:	2300      	movs	r3, #0
  b LoopCopyDataInit
 8000588:	e002      	b.n	8000590 <LoopCopyDataInit>

0800058a <CopyDataInit>:

CopyDataInit:
  ldr r4, [r2, r3]
 800058a:	58d4      	ldr	r4, [r2, r3]
  str r4, [r0, r3]
 800058c:	50c4      	str	r4, [r0, r3]
  adds r3, r3, #4
 800058e:	3304      	adds	r3, #4

08000590 <LoopCopyDataInit>:

LoopCopyDataInit:
  adds r4, r0, r3
 8000590:	18c4      	adds	r4, r0, r3
  cmp r4, r1
 8000592:	428c      	cmp	r4, r1
  bcc CopyDataInit
 8000594:	d3f9      	bcc.n	800058a <CopyDataInit>

/* Zero fill the bss segment. */
  ldr r2, =_sbss
 8000596:	4a0a      	ldr	r2, [pc, #40]	@ (80005c0 <LoopForever+0x12>)
  ldr r4, =_ebss
 8000598:	4c0a      	ldr	r4, [pc, #40]	@ (80005c4 <LoopForever+0x16>)
  movs r3, #0
 800059a:	2300      	movs	r3, #0
  b LoopFillZerobss
 800059c:	e001      	b.n	80005a2 <LoopFillZerobss>

0800059e <FillZerobss>:

FillZerobss:
  str  r3, [r2]
 800059e:	6013      	str	r3, [r2, #0]
  adds r2, r2, #4
 80005a0:	3204      	adds	r2, #4

080005a2 <LoopFillZerobss>:

LoopFillZerobss:
  cmp r2, r4
 80005a2:	42a2      	cmp	r2, r4
  bcc FillZerobss
 80005a4:	d3fb      	bcc.n	800059e <FillZerobss>


/* Call static constructors */
  bl __libc_init_array
 80005a6:	f000 f811 	bl	80005cc <__libc_init_array>
/* Call the application's entry point.*/

  bl main
 80005aa:	f7ff ffa3 	bl	80004f4 <main>

080005ae <LoopForever>:

LoopForever:
  b LoopForever
 80005ae:	e7fe      	b.n	80005ae <LoopForever>
  ldr   r0, =_estack
 80005b0:	20020000 	.word	0x20020000
  ldr r0, =_sdata
 80005b4:	20000000 	.word	0x20000000
  ldr r1, =_edata
 80005b8:	20000000 	.word	0x20000000
  ldr r2, =_sidata
 80005bc:	08000634 	.word	0x08000634
  ldr r2, =_sbss
 80005c0:	20000000 	.word	0x20000000
  ldr r4, =_ebss
 80005c4:	20000028 	.word	0x20000028

080005c8 <ADC_IRQHandler>:
 * @retval : None
*/
  .section .text.Default_Handler,"ax",%progbits
Default_Handler:
Infinite_Loop:
  b Infinite_Loop
 80005c8:	e7fe      	b.n	80005c8 <ADC_IRQHandler>
	...

080005cc <__libc_init_array>:
 80005cc:	b570      	push	{r4, r5, r6, lr}
 80005ce:	4b0d      	ldr	r3, [pc, #52]	@ (8000604 <__libc_init_array+0x38>)
 80005d0:	4d0d      	ldr	r5, [pc, #52]	@ (8000608 <__libc_init_array+0x3c>)
 80005d2:	1b5b      	subs	r3, r3, r5
 80005d4:	109c      	asrs	r4, r3, #2
 80005d6:	2600      	movs	r6, #0
 80005d8:	42a6      	cmp	r6, r4
 80005da:	d109      	bne.n	80005f0 <__libc_init_array+0x24>
 80005dc:	f000 f81a 	bl	8000614 <_init>
 80005e0:	4d0a      	ldr	r5, [pc, #40]	@ (800060c <__libc_init_array+0x40>)
 80005e2:	4b0b      	ldr	r3, [pc, #44]	@ (8000610 <__libc_init_array+0x44>)
 80005e4:	1b5b      	subs	r3, r3, r5
 80005e6:	109c      	asrs	r4, r3, #2
 80005e8:	2600      	movs	r6, #0
 80005ea:	42a6      	cmp	r6, r4
 80005ec:	d105      	bne.n	80005fa <__libc_init_array+0x2e>
 80005ee:	bd70      	pop	{r4, r5, r6, pc}
 80005f0:	f855 3b04 	ldr.w	r3, [r5], #4
 80005f4:	4798      	blx	r3
 80005f6:	3601      	adds	r6, #1
 80005f8:	e7ee      	b.n	80005d8 <__libc_init_array+0xc>
 80005fa:	f855 3b04 	ldr.w	r3, [r5], #4
 80005fe:	4798      	blx	r3
 8000600:	3601      	adds	r6, #1
 8000602:	e7f2      	b.n	80005ea <__libc_init_array+0x1e>
 8000604:	0800062c 	.word	0x0800062c
 8000608:	0800062c 	.word	0x0800062c
 800060c:	0800062c 	.word	0x0800062c
 8000610:	08000630 	.word	0x08000630

08000614 <_init>:
 8000614:	b5f8      	push	{r3, r4, r5, r6, r7, lr}
 8000616:	bf00      	nop
 8000618:	bcf8      	pop	{r3, r4, r5, r6, r7}
 800061a:	bc08      	pop	{r3}
 800061c:	469e      	mov	lr, r3
 800061e:	4770      	bx	lr

08000620 <_fini>:
 8000620:	b5f8      	push	{r3, r4, r5, r6, r7, lr}
 8000622:	bf00      	nop
 8000624:	bcf8      	pop	{r3, r4, r5, r6, r7}
 8000626:	bc08      	pop	{r3}
 8000628:	469e      	mov	lr, r3
 800062a:	4770      	bx	lr
